target datalayout = "e-m:e-p270:32:32-p271:32:32-p272:64:64-i64:64-i128:128-f80:128-n8:16:32:64-S128"
target triple = "x86_64-pc-linux-gnu"

%"struct.open_spiel::chess::Move" = type { %"struct.open_spiel::chess_common::Square", %"struct.open_spiel::chess_common::Square", %"struct.open_spiel::chess::Piece", i8, i32 }
%"struct.open_spiel::chess_common::Square" = type { i8, i8 }
%"struct.open_spiel::chess::Piece" = type { i8, i8 }

@_ZN10open_spiel5chess9kPassMoveE = linkonce_odr global %"struct.open_spiel::chess::Move" zeroinitializer, comdat, align 4
@_ZGVN10open_spiel5chess9kPassMoveE = linkonce_odr global i64 0, comdat($_ZN10open_spiel5chess9kPassMoveE), align 8

; Function Attrs: mustprogress nounwind uwtable
define linkonce_odr void @_ZN10open_spiel5chess4MoveC2ERKNS_12chess_common6SquareES5_RKNS0_5PieceENS0_9PieceTypeENS0_17CastlingDirectionE(ptr noundef nonnull align 4 dereferenceable(12) %0, ptr noundef nonnull align 1 dereferenceable(2) %1, ptr noundef nonnull align 1 dereferenceable(2) %2, ptr noundef nonnull align 1 dereferenceable(2) %3, i8 noundef signext %4, i32 noundef %5) unnamed_addr #5 comdat align 2 {
  %7 = alloca ptr, align 8
  %8 = alloca ptr, align 8
  %9 = alloca ptr, align 8
  %10 = alloca ptr, align 8
  %11 = alloca i8, align 1
  %12 = alloca i32, align 4
  store ptr %0, ptr %7, align 8
  store ptr %1, ptr %8, align 8
  store ptr %2, ptr %9, align 8
  store ptr %3, ptr %10, align 8
  store i8 %4, ptr %11, align 1
  store i32 %5, ptr %12, align 4
  %13 = load ptr, ptr %7, align 8
  %14 = getelementptr inbounds nuw %"struct.open_spiel::chess::Move", ptr %13, i32 0, i32 0
  %15 = load ptr, ptr %8, align 8
  call void @llvm.memcpy.p0.p0.i64(ptr align 4 %14, ptr align 1 %15, i64 2, i1 false)
  %16 = getelementptr inbounds nuw %"struct.open_spiel::chess::Move", ptr %13, i32 0, i32 1
  %17 = load ptr, ptr %9, align 8
  call void @llvm.memcpy.p0.p0.i64(ptr align 2 %16, ptr align 1 %17, i64 2, i1 false)
  %18 = getelementptr inbounds nuw %"struct.open_spiel::chess::Move", ptr %13, i32 0, i32 2
  %19 = load ptr, ptr %10, align 8
  call void @llvm.memcpy.p0.p0.i64(ptr align 4 %18, ptr align 1 %19, i64 2, i1 false)
  %20 = getelementptr inbounds nuw %"struct.open_spiel::chess::Move", ptr %13, i32 0, i32 3
  %21 = load i8, ptr %11, align 1
  store i8 %21, ptr %20, align 2
  %22 = getelementptr inbounds nuw %"struct.open_spiel::chess::Move", ptr %13, i32 0, i32 4
  %23 = load i32, ptr %12, align 4
  store i32 %23, ptr %22, align 4
  ret void
}

; Function Attrs: uwtable
define internal void @__cxx_global_var_init.4() #0 section ".text.startup" comdat($_ZN10open_spiel5chess9kPassMoveE) personality ptr @__gxx_personality_v0 {
  %1 = alloca %"struct.open_spiel::chess_common::Square", align 1
  %2 = alloca %"struct.open_spiel::chess_common::Square", align 1
  %3 = alloca %"struct.open_spiel::chess::Piece", align 1
  %4 = alloca ptr, align 8
  %5 = alloca i32, align 4
  %6 = load atomic i8, ptr @_ZGVN10open_spiel5chess9kPassMoveE acquire, align 8
  %7 = icmp eq i8 %6, 0
  br i1 %7, label %8, label %19

8:                                                ; preds = %0
  %9 = call i32 @__cxa_guard_acquire(ptr @_ZGVN10open_spiel5chess9kPassMoveE) #3
  %10 = icmp ne i32 %9, 0
  br i1 %10, label %11, label %19

11:                                               ; preds = %8
  %12 = getelementptr inbounds nuw %"struct.open_spiel::chess_common::Square", ptr %1, i32 0, i32 0
  store i8 -1, ptr %12, align 1
  %13 = getelementptr inbounds nuw %"struct.open_spiel::chess_common::Square", ptr %1, i32 0, i32 1
  store i8 -1, ptr %13, align 1
  %14 = getelementptr inbounds nuw %"struct.open_spiel::chess_common::Square", ptr %2, i32 0, i32 0
  store i8 -1, ptr %14, align 1
  %15 = getelementptr inbounds nuw %"struct.open_spiel::chess_common::Square", ptr %2, i32 0, i32 1
  store i8 -1, ptr %15, align 1
  %16 = getelementptr inbounds nuw %"struct.open_spiel::chess::Piece", ptr %3, i32 0, i32 0
  store i8 2, ptr %16, align 1
  %17 = getelementptr inbounds nuw %"struct.open_spiel::chess::Piece", ptr %3, i32 0, i32 1
  store i8 0, ptr %17, align 1
  invoke void @_ZN10open_spiel5chess4MoveC2ERKNS_12chess_common6SquareES5_RKNS0_5PieceENS0_9PieceTypeENS0_17CastlingDirectionE(ptr noundef nonnull align 4 dereferenceable(12) @_ZN10open_spiel5chess9kPassMoveE, ptr noundef nonnull align 1 dereferenceable(2) %1, ptr noundef nonnull align 1 dereferenceable(2) %2, ptr noundef nonnull align 1 dereferenceable(2) %3, i8 noundef signext 0, i32 noundef 2)
          to label %18 unwind label %20

18:                                               ; preds = %11
  call void @__cxa_guard_release(ptr @_ZGVN10open_spiel5chess9kPassMoveE) #3
  br label %19

19:                                               ; preds = %18, %8, %0
  ret void

20:                                               ; preds = %11
  %21 = landingpad { ptr, i32 }
          cleanup
  %22 = extractvalue { ptr, i32 } %21, 0
  store ptr %22, ptr %4, align 8
  %23 = extractvalue { ptr, i32 } %21, 1
  store i32 %23, ptr %5, align 4
  call void @__cxa_guard_abort(ptr @_ZGVN10open_spiel5chess9kPassMoveE) #3
  br label %24

24:                                               ; preds = %20
  %25 = load ptr, ptr %4, align 8
  %26 = load i32, ptr %5, align 4
  %27 = insertvalue { ptr, i32 } poison, ptr %25, 0
  %28 = insertvalue { ptr, i32 } %27, i32 %26, 1
  resume { ptr, i32 } %28
}